EXPORTS
??0CInputLayout@@QAE@ABV0@@Z
??0CInputLayout@@QAE@PBD@Z
??0CInputLayoutsManager@@QAE@ABV0@@Z
??0CInputLayoutsManager@@QAE@XZ
??0IExpressionEvaluator@@QAE@ABV0@@Z
??0IExpressionEvaluator@@QAE@XZ
??0IInputLayout@@QAE@ABV0@@Z
??0IInputLayout@@QAE@XZ
??1CInputLayout@@UAE@XZ
??1CInputLayoutsManager@@QAE@XZ
??1IExpressionEvaluator@@UAE@XZ
??1IInputLayout@@UAE@XZ
??4CInputLayout@@QAEAAV0@ABV0@@Z
??4CInputLayoutsManager@@QAEAAV0@ABV0@@Z
??4IExpressionEvaluator@@QAEAAV0@ABV0@@Z
??4IInputLayout@@QAEAAV0@ABV0@@Z
??_7CInputLayout@@6B@
??_7IExpressionEvaluator@@6B@
??_7IInputLayout@@6B@
?DS2Kernel_BeginFrame@@YAXXZ
?DS2Kernel_Init@@YAXXZ
?DS2Kernel_Shutdown@@YAXXZ
?GetDS2Engine@@YAPAVIDS2Engine@@XZ
?GetInterfaceServer@@YAPAVIInterfaceServer@@XZ
?Init@CServerEntitySlotsManager@@QAEXXZ
?_isv_action@CEngineInterfaces@@AAEXW4EInterfaceServerAction@@PAVIInterfaceBase@@@Z
?attach@CInputLayout@@QAEXPAV1@@Z
?bind@CInputLayout@@UAE_NPBD0W4EButtonAction@@@Z
?create@CInputLayoutsManager@@QAEPAVCInputLayout@@PBD@Z
?destroy@CInputLayoutsManager@@QAEXPAVCInputLayout@@@Z
?detach@CInputLayout@@QAEXXZ
?event_register@CEventManager@@QAEXPAVIEventBase@@@Z
?event_unregister@CEventManager@@QAEXPAVIEventBase@@@Z
?g_profiler@@3VCProfiler@@A
?get@CInputLayoutsManager@@QAEPAVCInputLayout@@PBD@Z
?get_bind_info@CInputLayout@@UAEXAAV?$vector@USButtonCommandInfo@@V?$allocator@USButtonCommandInfo@@@std@@@std@@@Z
?get_child@CInputLayout@@QAEPAV1@XZ
?get_client_game_api@IEntityBaseClient@@QAEPAVIClientGameAPI@@XZ
?get_keyboard_button_name@CInputLayout@@QAEPBDI@Z
?get_keyboard_ir@CInputLayout@@QAEPAVIKeyboardInputReceiver@@XZ
?get_layouts_manager@@YAPAVCInputLayoutsManager@@XZ
?get_mouse_button_name@CInputLayout@@QAEPBDI@Z
?get_mouse_ir@CInputLayout@@QAEPAVIMouseInputReceiver@@XZ
?get_name@CInputLayout@@UBEPBDXZ
?get_num_properties@IEntityBase@@QBEEXZ
?get_parent@CInputLayout@@QAEPAV1@XZ
?get_property@IEntityBase@@QBEPAVCPropertyBase@@E@Z
?get_server_game_api@IEntityBaseServer@@QAEPAVIServerGameAPI@@XZ
?init@CProfiler@@QAEXXZ
?instant_properties_synchronize@IEntityBaseServer@@QAEXXZ
?is_marked_for_destroy@IEntityBaseServer@@QBE_NXZ
?mouse_set_update_callback@CInputLayout@@QAEXPAVIMouseUpdateCallback@@@Z
?ms_signleton@CEventManager@@1V1@A
?on_lost_focus@CInputLayout@@QAEXXZ
?perform_pre_update_step@CServerDS2@@QAEXXZ
?sample_get@CProfiler@@QAEIPBD@Z
?sample_register@CProfiler@@QAEIPBD@Z
?sample_start@CProfiler@@QAEXI@Z
?sample_start@CProfiler@@QAEXPBD_N@Z
?sample_stop@CProfiler@@QAEXXZ
?send_net_message@IEntityBaseClient@@QAEXIGPBXG@Z
?send_net_message@IEntityBaseServer@@QAEXPAVIServerClientSlot@@IGPBXG@Z
?slot_valid_for_save@CServerDS2@@QAE_NPAVCServerEntitySlot@@@Z
?unbind@CInputLayout@@UAE_NPBD@Z
?unbind_all@CInputLayout@@UAEXXZ
?unbind_all@CInputLayoutsManager@@QAEXXZ
?update@CEventManager@@QAEXXZ
?update_register@IEntityBaseClient@@MAEXXZ
?update_register@IEntityBaseServer@@MAEXXZ
?update_unregister@IEntityBaseClient@@MAEXXZ
?update_unregister@IEntityBaseServer@@MAEXXZ
?write_state@CInputLayout@@QAEXAAVCDataBufferWriter@@@Z
?write_state@CInputLayoutsManager@@QAEXAAVCDataBufferWriter@@@Z